; Function Attrs: mustprogress nofree norecurse nosync nounwind memory(argmem: readwrite) uwtable
define void @_ZN5boost4urls6detail8url_impl10apply_hostENS0_9host_typeENS0_15pct_string_viewEPKh(ptr nocapture noundef nonnull align 8 dereferenceable(171) %0, i32 noundef %1, ptr nocapture noundef readonly byval(%"class.boost::urls::pct_string_view") align 8 %2, ptr nocapture noundef readonly %3) local_unnamed_addr #3 align 2 {
  %5 = getelementptr inbounds nuw i8, ptr %0, i64 164
  store i32 %1, ptr %5, align 4, !tbaa !21
  %6 = getelementptr inbounds nuw i8, ptr %2, i64 8
  %7 = load i64, ptr %6, align 8, !tbaa !16
  %8 = getelementptr inbounds nuw i8, ptr %0, i64 8
  %9 = getelementptr inbounds i8, ptr %0, i64 32
  %10 = load i64, ptr %9, align 8, !tbaa !13
  %11 = getelementptr inbounds i8, ptr %0, i64 24
  %12 = load i64, ptr %11, align 8, !tbaa !13
  %.neg.i = sub i64 %7, %10
  %13 = add i64 %.neg.i, %12
  br label %14

14:                                               ; preds = %14, %4
  %indvars.iv.i = phi i64 [ 2, %4 ], [ %indvars.iv.next.i, %14 ]
  %indvars.iv.next.i = add nuw nsw i64 %indvars.iv.i, 1
  %15 = getelementptr inbounds [8 x i64], ptr %8, i64 0, i64 %indvars.iv.next.i
  %16 = load i64, ptr %15, align 8, !tbaa !13
  %17 = add i64 %13, %16
  store i64 %17, ptr %15, align 8, !tbaa !13
  %exitcond.not.i = icmp eq i64 %indvars.iv.next.i, 7
  br i1 %exitcond.not.i, label %_ZN5boost4urls6detail8url_impl8set_sizeEim.exit, label %14, !llvm.loop !14

_ZN5boost4urls6detail8url_impl8set_sizeEim.exit:  ; preds = %14
  %18 = getelementptr inbounds nuw i8, ptr %2, i64 16
  %19 = load i64, ptr %18, align 8, !tbaa !18
  %20 = getelementptr inbounds i8, ptr %0, i64 88
  store i64 %19, ptr %20, align 8, !tbaa !13
  %21 = getelementptr inbounds nuw i8, ptr %0, i64 144
  tail call void @llvm.memcpy.p0.p0.i64(ptr noundef nonnull align 8 dereferenceable(16) %21, ptr noundef nonnull align 1 dereferenceable(16) %3, i64 16, i1 false)
  ret void
}